; Function Attrs: mustprogress uwtable
define dso_local { <2 x float>, <2 x float> } @_ZNK15btConvex2dShape37localGetSupportingVertexWithoutMarginERK9btVector3(ptr nocapture noundef nonnull readonly align 8 dereferenceable(40) %this, ptr noundef nonnull align 4 dereferenceable(16) %vec) unnamed_addr #4 align 2 {
entry:
  %m_childConvexShape = getelementptr inbounds i8, ptr %this, i64 32
  %0 = load ptr, ptr %m_childConvexShape, align 8
  %vtable = load ptr, ptr %0, align 8
  %vfn = getelementptr inbounds i8, ptr %vtable, i64 136
  %1 = load ptr, ptr %vfn, align 8
  %call = tail call { <2 x float>, <2 x float> } %1(ptr noundef nonnull align 8 dereferenceable(32) %0, ptr noundef nonnull align 4 dereferenceable(16) %vec)
  ret { <2 x float>, <2 x float> } %call
}